#include <math.h>
#include <stdio.h>
#include <stdlib.h>
#include <string.h>

int main()
{
    int i,j,col,row,array[100][100];
    scanf("%d %d",&row,&col);
    for(i=0;i<row;i++){
       for(j=0;j<col;j++){
          scanf("%d",&array[i][j]);
          }
          }
    int cxx=0,csx,rxx=0,rsx;
    for(i=0;i<col;i++){
       csx=i;
       rxx=0;
       while(csx>=0&&csx<col&&rxx>=0&&rxx<row){
       printf("%d\n",array[rxx][csx]);
       csx--;
       rxx++;
       }
       }
    for(j=1;j<row;j++){
       rxx=j;
       csx=col-1;
       while(csx>=0&&csx<col&&rxx>=0&&rxx<row){
       printf("%d\n",array[rxx][csx]);
       csx--;
       rxx++;
       }
       }
    int t;
    scanf("%d",&t);
    return 0;
}